target datalayout = "e-m:e-p270:32:32-p271:32:32-p272:64:64-i64:64-i128:128-f80:128-n8:16:32:64-S128"
target triple = "x86_64-pc-linux-gnu"

@hf_ndmp_fs_invalid = internal global i32 0, align 4
@hf_ndmp_fs_fs_type = internal global i32 0, align 4
@hf_ndmp_fs_logical_device = internal global i32 0, align 4
@hf_ndmp_fs_physical_device = internal global i32 0, align 4
@hf_ndmp_fs_total_size = internal global i32 0, align 4
@hf_ndmp_fs_used_size = internal global i32 0, align 4
@hf_ndmp_fs_avail_size = internal global i32 0, align 4
@hf_ndmp_fs_total_inodes = internal global i32 0, align 4
@hf_ndmp_fs_used_inodes = internal global i32 0, align 4
@hf_ndmp_fs_env = internal global i32 0, align 4
@hf_ndmp_fs_status = internal global i32 0, align 4
@ett_ndmp_fs_invalid = internal global i32 0, align 4
@dissect_fs_invalid.invalid_flags = internal constant [6 x ptr] [ptr @hf_ndmp_fs_invalid_used_inodes, ptr @hf_ndmp_fs_invalid_total_inodes, ptr @hf_ndmp_fs_invalid_avail_size, ptr @hf_ndmp_fs_invalid_used_size, ptr @hf_ndmp_fs_invalid_total_size, ptr null], align 16

; Function Attrs: null_pointer_is_valid sspstrong uwtable
define internal i32 @dissect_fs_invalid(ptr noundef %0, i32 noundef %1, ptr noundef %2, ptr noundef %3) #0 {
  %5 = alloca ptr, align 8
  %6 = alloca i32, align 4
  %7 = alloca ptr, align 8
  %8 = alloca ptr, align 8
  store ptr %0, ptr %5, align 8
  store i32 %1, ptr %6, align 4
  store ptr %2, ptr %7, align 8
  store ptr %3, ptr %8, align 8
  %9 = load ptr, ptr %8, align 8
  %10 = load ptr, ptr %5, align 8
  %11 = load i32, ptr %6, align 4
  %12 = load i32, ptr @hf_ndmp_fs_invalid, align 4
  %13 = load i32, ptr @ett_ndmp_fs_invalid, align 4
  %14 = call ptr @proto_tree_add_bitmask(ptr noundef %9, ptr noundef %10, i32 noundef %11, i32 noundef %12, i32 noundef %13, ptr noundef @dissect_fs_invalid.invalid_flags, i32 noundef 0)
  %15 = load i32, ptr %6, align 4
  %16 = add i32 %15, 4
  store i32 %16, ptr %6, align 4
  %17 = load i32, ptr %6, align 4
  ret i32 %17
}

; Function Attrs: null_pointer_is_valid sspstrong uwtable
define internal i32 @dissect_fs_info(ptr noundef %0, i32 noundef %1, ptr noundef %2, ptr noundef %3, ptr noundef %4) #0 {
  %6 = alloca ptr, align 8
  %7 = alloca i32, align 4
  %8 = alloca ptr, align 8
  %9 = alloca ptr, align 8
  %10 = alloca ptr, align 8
  store ptr %0, ptr %6, align 8
  store i32 %1, ptr %7, align 4
  store ptr %2, ptr %8, align 8
  store ptr %3, ptr %9, align 8
  store ptr %4, ptr %10, align 8
  %11 = load ptr, ptr %6, align 8
  %12 = load i32, ptr %7, align 4
  %13 = load ptr, ptr %8, align 8
  %14 = load ptr, ptr %9, align 8
  %15 = call i32 @dissect_fs_invalid(ptr noundef %11, i32 noundef %12, ptr noundef %13, ptr noundef %14)
  store i32 %15, ptr %7, align 4
  %16 = load ptr, ptr %6, align 8
  %17 = load ptr, ptr %9, align 8
  %18 = load i32, ptr @hf_ndmp_fs_fs_type, align 4
  %19 = load i32, ptr %7, align 4
  %20 = call i32 @dissect_rpc_string(ptr noundef %16, ptr noundef %17, i32 noundef %18, i32 noundef %19, ptr noundef null)
  store i32 %20, ptr %7, align 4
  %21 = load ptr, ptr %6, align 8
  %22 = load ptr, ptr %9, align 8
  %23 = load i32, ptr @hf_ndmp_fs_logical_device, align 4
  %24 = load i32, ptr %7, align 4
  %25 = call i32 @dissect_rpc_string(ptr noundef %21, ptr noundef %22, i32 noundef %23, i32 noundef %24, ptr noundef null)
  store i32 %25, ptr %7, align 4
  %26 = load ptr, ptr %6, align 8
  %27 = load ptr, ptr %9, align 8
  %28 = load i32, ptr @hf_ndmp_fs_physical_device, align 4
  %29 = load i32, ptr %7, align 4
  %30 = call i32 @dissect_rpc_string(ptr noundef %26, ptr noundef %27, i32 noundef %28, i32 noundef %29, ptr noundef null)
  store i32 %30, ptr %7, align 4
  %31 = load ptr, ptr %6, align 8
  %32 = load ptr, ptr %9, align 8
  %33 = load i32, ptr @hf_ndmp_fs_total_size, align 4
  %34 = load i32, ptr %7, align 4
  %35 = call i32 @dissect_rpc_uint64(ptr noundef %31, ptr noundef %32, i32 noundef %33, i32 noundef %34)
  store i32 %35, ptr %7, align 4
  %36 = load ptr, ptr %6, align 8
  %37 = load ptr, ptr %9, align 8
  %38 = load i32, ptr @hf_ndmp_fs_used_size, align 4
  %39 = load i32, ptr %7, align 4
  %40 = call i32 @dissect_rpc_uint64(ptr noundef %36, ptr noundef %37, i32 noundef %38, i32 noundef %39)
  store i32 %40, ptr %7, align 4
  %41 = load ptr, ptr %6, align 8
  %42 = load ptr, ptr %9, align 8
  %43 = load i32, ptr @hf_ndmp_fs_avail_size, align 4
  %44 = load i32, ptr %7, align 4
  %45 = call i32 @dissect_rpc_uint64(ptr noundef %41, ptr noundef %42, i32 noundef %43, i32 noundef %44)
  store i32 %45, ptr %7, align 4
  %46 = load ptr, ptr %6, align 8
  %47 = load ptr, ptr %9, align 8
  %48 = load i32, ptr @hf_ndmp_fs_total_inodes, align 4
  %49 = load i32, ptr %7, align 4
  %50 = call i32 @dissect_rpc_uint64(ptr noundef %46, ptr noundef %47, i32 noundef %48, i32 noundef %49)
  store i32 %50, ptr %7, align 4
  %51 = load ptr, ptr %6, align 8
  %52 = load ptr, ptr %9, align 8
  %53 = load i32, ptr @hf_ndmp_fs_used_inodes, align 4
  %54 = load i32, ptr %7, align 4
  %55 = call i32 @dissect_rpc_uint64(ptr noundef %51, ptr noundef %52, i32 noundef %53, i32 noundef %54)
  store i32 %55, ptr %7, align 4
  %56 = load ptr, ptr %6, align 8
  %57 = load ptr, ptr %8, align 8
  %58 = load ptr, ptr %9, align 8
  %59 = load i32, ptr %7, align 4
  %60 = load i32, ptr @hf_ndmp_fs_env, align 4
  %61 = call i32 @dissect_rpc_array(ptr noundef %56, ptr noundef %57, ptr noundef %58, i32 noundef %59, ptr noundef @dissect_fs_env, i32 noundef %60)
  store i32 %61, ptr %7, align 4
  %62 = load ptr, ptr %6, align 8
  %63 = load ptr, ptr %9, align 8
  %64 = load i32, ptr @hf_ndmp_fs_status, align 4
  %65 = load i32, ptr %7, align 4
  %66 = call i32 @dissect_rpc_string(ptr noundef %62, ptr noundef %63, i32 noundef %64, i32 noundef %65, ptr noundef null)
  store i32 %66, ptr %7, align 4
  %67 = load i32, ptr %7, align 4
  ret i32 %67
}