; Function Attrs: null_pointer_is_valid sspstrong uwtable
define internal i32 @dissect_fs_info(ptr noundef %0, i32 noundef %1, ptr noundef %2, ptr noundef %3, ptr readnone captures(none) %4) #0 {
  %6 = load i32, ptr @hf_ndmp_fs_invalid, align 4
  %7 = load i32, ptr @ett_ndmp_fs_invalid, align 4
  %8 = tail call ptr @proto_tree_add_bitmask(ptr noundef %3, ptr noundef %0, i32 noundef %1, i32 noundef %6, i32 noundef %7, ptr noundef nonnull @dissect_fs_invalid.invalid_flags, i32 noundef 0)
  %9 = add i32 %1, 4
  %10 = load i32, ptr @hf_ndmp_fs_fs_type, align 4
  %11 = tail call i32 @dissect_rpc_string(ptr noundef %0, ptr noundef %3, i32 noundef %10, i32 noundef %9, ptr noundef null)
  %12 = load i32, ptr @hf_ndmp_fs_logical_device, align 4
  %13 = tail call i32 @dissect_rpc_string(ptr noundef %0, ptr noundef %3, i32 noundef %12, i32 noundef %11, ptr noundef null)
  %14 = load i32, ptr @hf_ndmp_fs_physical_device, align 4
  %15 = tail call i32 @dissect_rpc_string(ptr noundef %0, ptr noundef %3, i32 noundef %14, i32 noundef %13, ptr noundef null)
  %16 = load i32, ptr @hf_ndmp_fs_total_size, align 4
  %17 = tail call i32 @dissect_rpc_uint64(ptr noundef %0, ptr noundef %3, i32 noundef %16, i32 noundef %15)
  %18 = load i32, ptr @hf_ndmp_fs_used_size, align 4
  %19 = tail call i32 @dissect_rpc_uint64(ptr noundef %0, ptr noundef %3, i32 noundef %18, i32 noundef %17)
  %20 = load i32, ptr @hf_ndmp_fs_avail_size, align 4
  %21 = tail call i32 @dissect_rpc_uint64(ptr noundef %0, ptr noundef %3, i32 noundef %20, i32 noundef %19)
  %22 = load i32, ptr @hf_ndmp_fs_total_inodes, align 4
  %23 = tail call i32 @dissect_rpc_uint64(ptr noundef %0, ptr noundef %3, i32 noundef %22, i32 noundef %21)
  %24 = load i32, ptr @hf_ndmp_fs_used_inodes, align 4
  %25 = tail call i32 @dissect_rpc_uint64(ptr noundef %0, ptr noundef %3, i32 noundef %24, i32 noundef %23)
  %26 = load i32, ptr @hf_ndmp_fs_env, align 4
  %27 = tail call i32 @dissect_rpc_array(ptr noundef %0, ptr noundef %2, ptr noundef %3, i32 noundef %25, ptr noundef nonnull @dissect_fs_env, i32 noundef %26)
  %28 = load i32, ptr @hf_ndmp_fs_status, align 4
  %29 = tail call i32 @dissect_rpc_string(ptr noundef %0, ptr noundef %3, i32 noundef %28, i32 noundef %27, ptr noundef null)
  ret i32 %29
}